; Function Attrs: mustprogress nofree norecurse nosync nounwind willreturn memory(write, argmem: readwrite, inaccessiblemem: none) uwtable
define void @dt_variables_set_max_width_height(ptr noundef readonly captures(none) %0, i32 noundef %1, i32 noundef %2) local_unnamed_addr #4 {
  %4 = getelementptr inbounds nuw i8, ptr %0, i64 24
  %5 = load ptr, ptr %4, align 8, !tbaa !11
  %6 = getelementptr inbounds nuw i8, ptr %5, i64 36
  store i32 %1, ptr %6, align 4, !tbaa !122
  %7 = getelementptr inbounds nuw i8, ptr %5, i64 40
  store i32 %2, ptr %7, align 8, !tbaa !121
  ret void
}